target datalayout = "e-m:e-p270:32:32-p271:32:32-p272:64:64-i64:64-i128:128-f80:128-n8:16:32:64-S128"
target triple = "x86_64-pc-linux-gnu"

%struct.SYSCACHECALLBACK = type { i16, i16, ptr, i64 }

@syscache_callback_count = internal global i32 0, align 4
@syscache_callback_list = internal global [64 x %struct.SYSCACHECALLBACK] zeroinitializer, align 16
@.str.1 = private unnamed_addr constant [8 x i8] c"inval.c\00", align 1
@.str.8 = private unnamed_addr constant [21 x i8] c"invalid cache ID: %d\00", align 1
@__func__.CacheRegisterSyscacheCallback = private unnamed_addr constant [30 x i8] c"CacheRegisterSyscacheCallback\00", align 1
@.str.9 = private unnamed_addr constant [36 x i8] c"out of syscache_callback_list slots\00", align 1
@syscache_callback_links = internal global [85 x i16] zeroinitializer, align 16

; Function Attrs: nounwind uwtable
define dso_local void @CacheRegisterSyscacheCallback(i32 noundef %0, ptr noundef %1, i64 noundef %2) #0 {
  %4 = alloca i32, align 4
  %5 = alloca ptr, align 8
  %6 = alloca i64, align 8
  %7 = alloca i32, align 4
  store i32 %0, ptr %4, align 4
  store ptr %1, ptr %5, align 8
  store i64 %2, ptr %6, align 8
  %8 = load i32, ptr %4, align 4
  %9 = icmp slt i32 %8, 0
  br i1 %9, label %13, label %10

10:                                               ; preds = %3
  %11 = load i32, ptr %4, align 4
  %12 = icmp sge i32 %11, 85
  br i1 %12, label %13, label %24

13:                                               ; preds = %10, %3
  br label %14

14:                                               ; preds = %13
  br i1 true, label %15, label %17

15:                                               ; preds = %14
  %16 = call zeroext i1 @errstart_cold(i32 noundef 22, ptr noundef null) #8
  br i1 %16, label %19, label %22

17:                                               ; preds = %14
  %18 = call zeroext i1 @errstart(i32 noundef 22, ptr noundef null)
  br i1 %18, label %19, label %22

19:                                               ; preds = %17, %15
  %20 = load i32, ptr %4, align 4
  %21 = call i32 (ptr, ...) @errmsg_internal(ptr noundef @.str.8, i32 noundef %20)
  call void @errfinish(ptr noundef @.str.1, i32 noundef 1712, ptr noundef @__func__.CacheRegisterSyscacheCallback)
  br label %22

22:                                               ; preds = %19, %17, %15
  unreachable

23:                                               ; No predecessors!
  br label %24

24:                                               ; preds = %23, %10
  %25 = load i32, ptr @syscache_callback_count, align 4
  %26 = icmp sge i32 %25, 64
  br i1 %26, label %27, label %37

27:                                               ; preds = %24
  br label %28

28:                                               ; preds = %27
  br i1 true, label %29, label %31

29:                                               ; preds = %28
  %30 = call zeroext i1 @errstart_cold(i32 noundef 22, ptr noundef null) #8
  br i1 %30, label %33, label %35

31:                                               ; preds = %28
  %32 = call zeroext i1 @errstart(i32 noundef 22, ptr noundef null)
  br i1 %32, label %33, label %35

33:                                               ; preds = %31, %29
  %34 = call i32 (ptr, ...) @errmsg_internal(ptr noundef @.str.9)
  call void @errfinish(ptr noundef @.str.1, i32 noundef 1714, ptr noundef @__func__.CacheRegisterSyscacheCallback)
  br label %35

35:                                               ; preds = %33, %31, %29
  unreachable

36:                                               ; No predecessors!
  br label %37

37:                                               ; preds = %36, %24
  %38 = load i32, ptr %4, align 4
  %39 = sext i32 %38 to i64
  %40 = getelementptr inbounds [85 x i16], ptr @syscache_callback_links, i64 0, i64 %39
  %41 = load i16, ptr %40, align 2
  %42 = sext i16 %41 to i32
  %43 = icmp eq i32 %42, 0
  br i1 %43, label %44, label %51

44:                                               ; preds = %37
  %45 = load i32, ptr @syscache_callback_count, align 4
  %46 = add i32 %45, 1
  %47 = trunc i32 %46 to i16
  %48 = load i32, ptr %4, align 4
  %49 = sext i32 %48 to i64
  %50 = getelementptr inbounds [85 x i16], ptr @syscache_callback_links, i64 0, i64 %49
  store i16 %47, ptr %50, align 2
  br label %82

51:                                               ; preds = %37
  call void @llvm.lifetime.start.p0(i64 4, ptr %7) #7
  %52 = load i32, ptr %4, align 4
  %53 = sext i32 %52 to i64
  %54 = getelementptr inbounds [85 x i16], ptr @syscache_callback_links, i64 0, i64 %53
  %55 = load i16, ptr %54, align 2
  %56 = sext i16 %55 to i32
  %57 = sub i32 %56, 1
  store i32 %57, ptr %7, align 4
  br label %58

58:                                               ; preds = %66, %51
  %59 = load i32, ptr %7, align 4
  %60 = sext i32 %59 to i64
  %61 = getelementptr inbounds [64 x %struct.SYSCACHECALLBACK], ptr @syscache_callback_list, i64 0, i64 %60
  %62 = getelementptr inbounds nuw %struct.SYSCACHECALLBACK, ptr %61, i32 0, i32 1
  %63 = load i16, ptr %62, align 2
  %64 = sext i16 %63 to i32
  %65 = icmp sgt i32 %64, 0
  br i1 %65, label %66, label %74

66:                                               ; preds = %58
  %67 = load i32, ptr %7, align 4
  %68 = sext i32 %67 to i64
  %69 = getelementptr inbounds [64 x %struct.SYSCACHECALLBACK], ptr @syscache_callback_list, i64 0, i64 %68
  %70 = getelementptr inbounds nuw %struct.SYSCACHECALLBACK, ptr %69, i32 0, i32 1
  %71 = load i16, ptr %70, align 2
  %72 = sext i16 %71 to i32
  %73 = sub i32 %72, 1
  store i32 %73, ptr %7, align 4
  br label %58, !llvm.loop !13

74:                                               ; preds = %58
  %75 = load i32, ptr @syscache_callback_count, align 4
  %76 = add i32 %75, 1
  %77 = trunc i32 %76 to i16
  %78 = load i32, ptr %7, align 4
  %79 = sext i32 %78 to i64
  %80 = getelementptr inbounds [64 x %struct.SYSCACHECALLBACK], ptr @syscache_callback_list, i64 0, i64 %79
  %81 = getelementptr inbounds nuw %struct.SYSCACHECALLBACK, ptr %80, i32 0, i32 1
  store i16 %77, ptr %81, align 2
  call void @llvm.lifetime.end.p0(i64 4, ptr %7) #7
  br label %82

82:                                               ; preds = %74, %44
  %83 = load i32, ptr %4, align 4
  %84 = trunc i32 %83 to i16
  %85 = load i32, ptr @syscache_callback_count, align 4
  %86 = sext i32 %85 to i64
  %87 = getelementptr inbounds [64 x %struct.SYSCACHECALLBACK], ptr @syscache_callback_list, i64 0, i64 %86
  %88 = getelementptr inbounds nuw %struct.SYSCACHECALLBACK, ptr %87, i32 0, i32 0
  store i16 %84, ptr %88, align 8
  %89 = load i32, ptr @syscache_callback_count, align 4
  %90 = sext i32 %89 to i64
  %91 = getelementptr inbounds [64 x %struct.SYSCACHECALLBACK], ptr @syscache_callback_list, i64 0, i64 %90
  %92 = getelementptr inbounds nuw %struct.SYSCACHECALLBACK, ptr %91, i32 0, i32 1
  store i16 0, ptr %92, align 2
  %93 = load ptr, ptr %5, align 8
  %94 = load i32, ptr @syscache_callback_count, align 4
  %95 = sext i32 %94 to i64
  %96 = getelementptr inbounds [64 x %struct.SYSCACHECALLBACK], ptr @syscache_callback_list, i64 0, i64 %95
  %97 = getelementptr inbounds nuw %struct.SYSCACHECALLBACK, ptr %96, i32 0, i32 2
  store ptr %93, ptr %97, align 8
  %98 = load i64, ptr %6, align 8
  %99 = load i32, ptr @syscache_callback_count, align 4
  %100 = sext i32 %99 to i64
  %101 = getelementptr inbounds [64 x %struct.SYSCACHECALLBACK], ptr @syscache_callback_list, i64 0, i64 %100
  %102 = getelementptr inbounds nuw %struct.SYSCACHECALLBACK, ptr %101, i32 0, i32 3
  store i64 %98, ptr %102, align 8
  %103 = load i32, ptr @syscache_callback_count, align 4
  %104 = add i32 %103, 1
  store i32 %104, ptr @syscache_callback_count, align 4
  ret void
}