; Function Attrs: nounwind uwtable
define dso_local void @CacheRegisterSyscacheCallback(i32 noundef %0, ptr noundef %1, i64 noundef %2) local_unnamed_addr #0 {
  %or.cond = icmp ugt i32 %0, 84
  br i1 %or.cond, label %4, label %7

4:                                                ; preds = %3
  %5 = tail call zeroext i1 @errstart_cold(i32 noundef 22, ptr noundef null) #8
  tail call void @llvm.assume(i1 %5)
  %6 = tail call i32 (ptr, ...) @errmsg_internal(ptr noundef nonnull @.str.8, i32 noundef %0) #7
  tail call void @errfinish(ptr noundef nonnull @.str.1, i32 noundef 1712, ptr noundef nonnull @__func__.CacheRegisterSyscacheCallback) #7
  unreachable

7:                                                ; preds = %3
  %8 = load i32, ptr @syscache_callback_count, align 4
  %9 = icmp sgt i32 %8, 63
  br i1 %9, label %10, label %13

10:                                               ; preds = %7
  %11 = tail call zeroext i1 @errstart_cold(i32 noundef 22, ptr noundef null) #8
  tail call void @llvm.assume(i1 %11)
  %12 = tail call i32 (ptr, ...) @errmsg_internal(ptr noundef nonnull @.str.9) #7
  tail call void @errfinish(ptr noundef nonnull @.str.1, i32 noundef 1714, ptr noundef nonnull @__func__.CacheRegisterSyscacheCallback) #7
  unreachable

13:                                               ; preds = %7
  %14 = zext nneg i32 %0 to i64
  %15 = getelementptr inbounds nuw [85 x i16], ptr @syscache_callback_links, i64 0, i64 %14
  %16 = load i16, ptr %15, align 2
  %17 = icmp eq i16 %16, 0
  br i1 %17, label %18, label %21

18:                                               ; preds = %13
  %19 = trunc i32 %8 to i16
  %20 = add i16 %19, 1
  store i16 %20, ptr %15, align 2
  br label %31

21:                                               ; preds = %13
  %22 = sext i16 %16 to i64
  br label %23

23:                                               ; preds = %23, %21
  %.0.in = phi i64 [ %22, %21 ], [ %27, %23 ]
  %.0 = add nsw i64 %.0.in, -1
  %24 = getelementptr inbounds [64 x %struct.SYSCACHECALLBACK], ptr @syscache_callback_list, i64 0, i64 %.0, i32 1
  %25 = load i16, ptr %24, align 2
  %26 = icmp sgt i16 %25, 0
  %27 = zext nneg i16 %25 to i64
  br i1 %26, label %23, label %28, !llvm.loop !16

28:                                               ; preds = %23
  %29 = trunc i32 %8 to i16
  %30 = add i16 %29, 1
  store i16 %30, ptr %24, align 2
  br label %31

31:                                               ; preds = %28, %18
  %32 = trunc nuw nsw i32 %0 to i16
  %33 = sext i32 %8 to i64
  %34 = getelementptr inbounds [64 x %struct.SYSCACHECALLBACK], ptr @syscache_callback_list, i64 0, i64 %33
  store i16 %32, ptr %34, align 8
  %35 = getelementptr inbounds [64 x %struct.SYSCACHECALLBACK], ptr @syscache_callback_list, i64 0, i64 %33, i32 1
  store i16 0, ptr %35, align 2
  %36 = getelementptr inbounds [64 x %struct.SYSCACHECALLBACK], ptr @syscache_callback_list, i64 0, i64 %33, i32 2
  store ptr %1, ptr %36, align 8
  %37 = getelementptr inbounds [64 x %struct.SYSCACHECALLBACK], ptr @syscache_callback_list, i64 0, i64 %33, i32 3
  store i64 %2, ptr %37, align 8
  %38 = add i32 %8, 1
  store i32 %38, ptr @syscache_callback_count, align 4
  ret void
}